; Function Attrs: nounwind sspstrong uwtable
define internal i64 @enum_each_cons(i64 noundef %0, i64 noundef %1) #0 {
  %3 = alloca i64, align 8
  store i64 %1, ptr %3, align 8, !tbaa !7
  %4 = and i64 %1, 1
  %.not.i = icmp eq i64 %4, 0
  br i1 %.not.i, label %7, label %5

5:                                                ; preds = %2
  %6 = ashr i64 %1, 1
  br label %rb_num2long_inline.exit

7:                                                ; preds = %2
  %8 = tail call i64 @rb_num2long(i64 noundef %1) #14
  br label %rb_num2long_inline.exit

rb_num2long_inline.exit:                          ; preds = %5, %7
  %.0.i = phi i64 [ %6, %5 ], [ %8, %7 ]
  %9 = icmp slt i64 %.0.i, 1
  br i1 %9, label %10, label %12

10:                                               ; preds = %rb_num2long_inline.exit
  %11 = load i64, ptr @rb_eArgError, align 8, !tbaa !7
  tail call void (i64, ptr, ...) @rb_raise(i64 noundef %11, ptr noundef nonnull @.str.89) #15
  unreachable

12:                                               ; preds = %rb_num2long_inline.exit
  %13 = tail call i32 @rb_block_given_p() #14
  %.not = icmp eq i32 %13, 0
  br i1 %.not, label %14, label %18

14:                                               ; preds = %12
  %15 = tail call i64 @rb_frame_this_func() #14
  %16 = tail call i64 @rb_id2sym(i64 noundef %15) #14
  %17 = call i64 @rb_enumeratorize_with_size(i64 noundef %0, i64 noundef %16, i32 noundef 1, ptr noundef nonnull %3, ptr noundef nonnull @enum_each_cons_size) #14
  br label %36

18:                                               ; preds = %12
  %19 = tail call i32 @rb_block_arity() #14
  %20 = tail call i64 @rb_check_funcall(i64 noundef %0, i64 noundef 3025, i32 noundef 0, ptr noundef null) #14
  %21 = and i64 %20, 1
  %.not.i15 = icmp eq i64 %21, 0
  %22 = ashr i64 %20, 1
  %23 = icmp ule i64 %.0.i, %22
  %narrow.i.not = or i1 %.not.i15, %23
  br i1 %narrow.i.not, label %24, label %36

24:                                               ; preds = %18
  %25 = tail call i64 @rb_ary_new_capa(i64 noundef %.0.i) #14
  %26 = icmp eq i32 %19, 1
  %27 = icmp slt i32 %19, 0
  %28 = or i1 %26, %27
  %29 = zext i1 %28 to i64
  %30 = tail call i64 @rb_imemo_new(i32 noundef 5, i64 noundef 0, i64 noundef 40) #14
  %31 = inttoptr i64 %30 to ptr
  %32 = getelementptr inbounds nuw i8, ptr %31, i64 16
  store i64 %25, ptr %32, align 8, !tbaa !7
  %33 = getelementptr inbounds nuw i8, ptr %31, i64 24
  store i64 %29, ptr %33, align 8, !tbaa !7
  %34 = getelementptr inbounds nuw i8, ptr %31, i64 32
  store i64 %.0.i, ptr %34, align 8, !tbaa !22
  %35 = tail call i64 @rb_block_call(i64 noundef %0, i64 noundef 3073, i32 noundef 0, ptr noundef null, ptr noundef nonnull @each_cons_i, i64 noundef %30) #14
  br label %36

36:                                               ; preds = %18, %24, %14
  %.0 = phi i64 [ %0, %24 ], [ %17, %14 ], [ %0, %18 ]
  ret i64 %.0
}